; Function Attrs: mustprogress nofree norecurse nosync nounwind ssp willreturn memory(argmem: readwrite) uwtable
define internal void @_ZN6open3d4core6kernelL26CPULogicalAndElementKernelIhhEEvPKvS4_Pv(ptr noundef readonly captures(none) %0, ptr noundef readonly captures(none) %1, ptr noundef writeonly captures(none) initializes((0, 1)) %2) #15 {
  %4 = load i8, ptr %0, align 1, !tbaa !13
  %.not = icmp eq i8 %4, 0
  br i1 %.not, label %9, label %5

5:                                                ; preds = %3
  %6 = load i8, ptr %1, align 1, !tbaa !13
  %7 = icmp ne i8 %6, 0
  %8 = zext i1 %7 to i8
  br label %9

9:                                                ; preds = %5, %3
  %10 = phi i8 [ 0, %3 ], [ %8, %5 ]
  store i8 %10, ptr %2, align 1, !tbaa !13
  ret void
}